target datalayout = "e-m:e-p270:32:32-p271:32:32-p272:64:64-i64:64-i128:128-f80:128-n8:16:32:64-S128"
target triple = "x86_64-unknown-linux-gnu"

%"class.std::set.0" = type { %"class.std::_Rb_tree.1" }
%"class.std::_Rb_tree.1" = type { %"struct.std::_Rb_tree<QuantLib::Observer *, QuantLib::Observer *, std::_Identity<QuantLib::Observer *>, std::less<QuantLib::Observer *>>::_Rb_tree_impl" }
%"struct.std::_Rb_tree<QuantLib::Observer *, QuantLib::Observer *, std::_Identity<QuantLib::Observer *>, std::less<QuantLib::Observer *>>::_Rb_tree_impl" = type { [8 x i8], %"struct.std::_Rb_tree_header" }
%"struct.std::_Rb_tree_header" = type { %"struct.std::_Rb_tree_node_base", i64 }
%"struct.std::_Rb_tree_node_base" = type { i32, ptr, ptr, ptr }
%"class.std::set" = type { %"class.std::_Rb_tree" }
%"class.std::_Rb_tree" = type { %"struct.std::_Rb_tree<boost::shared_ptr<QuantLib::Observable>, boost::shared_ptr<QuantLib::Observable>, std::_Identity<boost::shared_ptr<QuantLib::Observable>>, std::less<boost::shared_ptr<QuantLib::Observable>>>::_Rb_tree_impl" }
%"struct.std::_Rb_tree<boost::shared_ptr<QuantLib::Observable>, boost::shared_ptr<QuantLib::Observable>, std::_Identity<boost::shared_ptr<QuantLib::Observable>>, std::less<boost::shared_ptr<QuantLib::Observable>>>::_Rb_tree_impl" = type { [8 x i8], %"struct.std::_Rb_tree_header" }
%"class.boost::detail::shared_count" = type { ptr }
%"class.QuantLib::Observable" = type { ptr, %"class.std::set.0" }
%"class.QuantLib::AnalyticHolderExtensibleOptionEngine" = type { %"class.QuantLib::HolderExtensibleOption::engine", %"class.boost::shared_ptr.23" }
%"class.QuantLib::HolderExtensibleOption::engine" = type { %"class.QuantLib::GenericEngine" }
%"class.QuantLib::GenericEngine" = type { %"class.QuantLib::PricingEngine", %"class.QuantLib::Observer", %"class.QuantLib::HolderExtensibleOption::arguments", %"class.QuantLib::OneAssetOption::results" }
%"class.QuantLib::PricingEngine" = type { %"class.QuantLib::Observable" }
%"class.QuantLib::Observer" = type { ptr, %"class.std::set" }
%"class.QuantLib::HolderExtensibleOption::arguments" = type { %"class.QuantLib::Option::arguments", double, %"class.QuantLib::Date", double }
%"class.QuantLib::Option::arguments" = type { %"class.QuantLib::PricingEngine::arguments", %"class.boost::shared_ptr.16", %"class.boost::shared_ptr.17" }
%"class.QuantLib::PricingEngine::arguments" = type { ptr }
%"class.boost::shared_ptr.16" = type { ptr, %"class.boost::detail::shared_count" }
%"class.boost::shared_ptr.17" = type { ptr, %"class.boost::detail::shared_count" }
%"class.QuantLib::Date" = type { i64 }
%"class.QuantLib::OneAssetOption::results" = type { %"class.QuantLib::Instrument::results", %"class.QuantLib::Greeks", %"class.QuantLib::MoreGreeks" }
%"class.QuantLib::Instrument::results" = type { %"class.QuantLib::PricingEngine::results", double, double, %"class.QuantLib::Date", %"class.std::map" }
%"class.QuantLib::PricingEngine::results" = type { ptr }
%"class.std::map" = type { %"class.std::_Rb_tree.10" }
%"class.std::_Rb_tree.10" = type { %"struct.std::_Rb_tree<std::__cxx11::basic_string<char>, std::pair<const std::__cxx11::basic_string<char>, boost::any>, std::_Select1st<std::pair<const std::__cxx11::basic_string<char>, boost::any>>, std::less<std::__cxx11::basic_string<char>>>::_Rb_tree_impl" }
%"struct.std::_Rb_tree<std::__cxx11::basic_string<char>, std::pair<const std::__cxx11::basic_string<char>, boost::any>, std::_Select1st<std::pair<const std::__cxx11::basic_string<char>, boost::any>>, std::less<std::__cxx11::basic_string<char>>>::_Rb_tree_impl" = type { [8 x i8], %"struct.std::_Rb_tree_header" }
%"class.QuantLib::Greeks" = type { %"class.QuantLib::PricingEngine::results", double, double, double, double, double, double }
%"class.QuantLib::MoreGreeks" = type { %"class.QuantLib::PricingEngine::results", double, double, double, double, double }
%"class.boost::shared_ptr.23" = type { ptr, %"class.boost::detail::shared_count" }
%"class.QuantLib::BlackScholesCalculator" = type { %"class.QuantLib::BlackCalculator", double, double }
%"class.QuantLib::BlackCalculator" = type { ptr, double, double, double, double, double, double, double, double, double, double, double, double, double, double, double, double, double, double }

@.str.14 = private unnamed_addr constant [8 x i8] c"px != 0\00", align 1
@.str.15 = private unnamed_addr constant [102 x i8] c"generated/home/dtcxzyw/WorkSpace/SDK/vcpkg/installed/x64-linux/include/boost/smart_ptr/shared_ptr.hpp\00", align 1

; Function Attrs: inlinehint mustprogress nounwind uwtable
define linkonce_odr noundef nonnull align 8 dereferenceable(152) ptr @_ZN8QuantLib15BlackCalculatoraSERKS0_(ptr noundef nonnull align 8 dereferenceable(152) %this, ptr noundef nonnull align 8 dereferenceable(152) %0) #5 comdat align 2 {
entry:
  %this.addr = alloca ptr, align 8
  %.addr = alloca ptr, align 8
  store ptr %this, ptr %this.addr, align 8, !tbaa !3
  store ptr %0, ptr %.addr, align 8, !tbaa !3
  %this1 = load ptr, ptr %this.addr, align 8
  %strike_ = getelementptr inbounds nuw %"class.QuantLib::BlackCalculator", ptr %this1, i32 0, i32 1
  %1 = load ptr, ptr %.addr, align 8
  %strike_2 = getelementptr inbounds nuw %"class.QuantLib::BlackCalculator", ptr %1, i32 0, i32 1
  call void @llvm.memcpy.p0.p0.i64(ptr align 8 %strike_, ptr align 8 %strike_2, i64 144, i1 false)
  ret ptr %this1
}

; Function Attrs: mustprogress nounwind uwtable
define linkonce_odr void @_ZN8QuantLib15BlackCalculatorD2Ev(ptr noundef nonnull align 8 dereferenceable(152) %this) unnamed_addr #1 comdat align 2 {
entry:
  %this.addr = alloca ptr, align 8
  store ptr %this, ptr %this.addr, align 8, !tbaa !3
  ret void
}

; Function Attrs: inlinehint mustprogress nounwind uwtable
define linkonce_odr noundef nonnull align 8 dereferenceable(168) ptr @_ZN8QuantLib22BlackScholesCalculatoraSERKS0_(ptr noundef nonnull align 8 dereferenceable(168) %this, ptr noundef nonnull align 8 dereferenceable(168) %0) #5 comdat align 2 {
entry:
  %this.addr = alloca ptr, align 8
  %.addr = alloca ptr, align 8
  store ptr %this, ptr %this.addr, align 8, !tbaa !3
  store ptr %0, ptr %.addr, align 8, !tbaa !3
  %this1 = load ptr, ptr %this.addr, align 8
  %1 = load ptr, ptr %.addr, align 8, !tbaa !3
  %call = call noundef nonnull align 8 dereferenceable(152) ptr @_ZN8QuantLib15BlackCalculatoraSERKS0_(ptr noundef nonnull align 8 dereferenceable(152) %this1, ptr noundef nonnull align 8 dereferenceable(152) %1) #13
  %spot_ = getelementptr inbounds nuw %"class.QuantLib::BlackScholesCalculator", ptr %this1, i32 0, i32 1
  %2 = load ptr, ptr %.addr, align 8
  %spot_2 = getelementptr inbounds nuw %"class.QuantLib::BlackScholesCalculator", ptr %2, i32 0, i32 1
  call void @llvm.memcpy.p0.p0.i64(ptr align 8 %spot_, ptr align 8 %spot_2, i64 16, i1 false)
  ret ptr %this1
}

; Function Attrs: inlinehint mustprogress uwtable
define linkonce_odr noundef double @_ZNK8QuantLib22BlackScholesCalculator5deltaEv(ptr noundef nonnull align 8 dereferenceable(168) %this) #4 comdat align 2 {
entry:
  %this.addr = alloca ptr, align 8
  store ptr %this, ptr %this.addr, align 8, !tbaa !3
  %this1 = load ptr, ptr %this.addr, align 8
  %spot_ = getelementptr inbounds nuw %"class.QuantLib::BlackScholesCalculator", ptr %this1, i32 0, i32 1
  %0 = load double, ptr %spot_, align 8, !tbaa !68
  %call = call noundef double @_ZNK8QuantLib15BlackCalculator5deltaEd(ptr noundef nonnull align 8 dereferenceable(152) %this1, double noundef %0)
  ret double %call
}

; Function Attrs: mustprogress uwtable
define linkonce_odr noundef ptr @_ZNK5boost10shared_ptrIN8QuantLib30GeneralizedBlackScholesProcessEEptEv(ptr noundef nonnull align 8 dereferenceable(16) %this) #2 comdat align 2 {
entry:
  %this.addr = alloca ptr, align 8
  store ptr %this, ptr %this.addr, align 8, !tbaa !3
  %this1 = load ptr, ptr %this.addr, align 8
  %px = getelementptr inbounds nuw %"class.boost::shared_ptr.23", ptr %this1, i32 0, i32 0
  %0 = load ptr, ptr %px, align 8, !tbaa !14
  %cmp = icmp ne ptr %0, null
  %lnot = xor i1 %cmp, true
  %lnot2 = xor i1 %lnot, true
  %conv = zext i1 %lnot2 to i64
  %expval = call i64 @llvm.expect.i64(i64 %conv, i64 1)
  %tobool = icmp ne i64 %expval, 0
  br i1 %tobool, label %cond.true, label %cond.false

cond.true:                                        ; preds = %entry
  br label %cond.end

cond.false:                                       ; preds = %entry
  call void @_ZN5boost16assertion_failedEPKcS1_S1_l(ptr noundef @.str.14, ptr noundef @__PRETTY_FUNCTION__._ZNK5boost10shared_ptrIN8QuantLib30GeneralizedBlackScholesProcessEEptEv, ptr noundef @.str.15, i64 noundef 784)
  br label %cond.end

cond.end:                                         ; preds = %cond.false, %cond.true
  %px3 = getelementptr inbounds nuw %"class.boost::shared_ptr.23", ptr %this1, i32 0, i32 0
  %1 = load ptr, ptr %px3, align 8, !tbaa !14
  ret ptr %1
}

; Function Attrs: mustprogress uwtable
define noundef double @_ZNK8QuantLib36AnalyticHolderExtensibleOptionEngine6I1CallEv(ptr noundef nonnull align 8 dereferenceable(376) %this) #2 align 2 personality ptr @__gxx_personality_v0 {
entry:
  %retval = alloca double, align 8
  %this.addr = alloca ptr, align 8
  %Sv = alloca double, align 8
  %A = alloca double, align 8
  %cleanup.dest.slot = alloca i32, align 4
  %bs = alloca %"class.QuantLib::BlackScholesCalculator", align 8
  %ci = alloca double, align 8
  %exn.slot = alloca ptr, align 8
  %ehselector.slot = alloca i32, align 4
  %dc = alloca double, align 8
  %yi = alloca double, align 8
  %di = alloca double, align 8
  %epsilon = alloca double, align 8
  %ref.tmp = alloca %"class.QuantLib::BlackScholesCalculator", align 8
  store ptr %this, ptr %this.addr, align 8, !tbaa !3
  %this1 = load ptr, ptr %this.addr, align 8
  call void @llvm.lifetime.start.p0(i64 8, ptr %Sv) #13
  %process_ = getelementptr inbounds nuw %"class.QuantLib::AnalyticHolderExtensibleOptionEngine", ptr %this1, i32 0, i32 1
  %call = call noundef ptr @_ZNK5boost10shared_ptrIN8QuantLib30GeneralizedBlackScholesProcessEEptEv(ptr noundef nonnull align 8 dereferenceable(16) %process_)
  %vtable = load ptr, ptr %call, align 8, !tbaa !12
  %vfn = getelementptr inbounds ptr, ptr %vtable, i64 15
  %0 = load ptr, ptr %vfn, align 8
  %call2 = call noundef double %0(ptr noundef nonnull align 8 dereferenceable(250) %call)
  store double %call2, ptr %Sv, align 8, !tbaa !18
  call void @llvm.lifetime.start.p0(i64 8, ptr %A) #13
  %arguments_ = getelementptr inbounds nuw %"class.QuantLib::GenericEngine", ptr %this1, i32 0, i32 2
  %premium = getelementptr inbounds nuw %"class.QuantLib::HolderExtensibleOption::arguments", ptr %arguments_, i32 0, i32 1
  %1 = load double, ptr %premium, align 8, !tbaa !53
  store double %1, ptr %A, align 8, !tbaa !18
  %2 = load double, ptr %A, align 8, !tbaa !18
  %cmp = fcmp oeq double %2, 0.000000e+00
  br i1 %cmp, label %if.then, label %if.else

if.then:                                          ; preds = %entry
  store double 0.000000e+00, ptr %retval, align 8
  store i32 1, ptr %cleanup.dest.slot, align 4
  br label %cleanup

if.else:                                          ; preds = %entry
  call void @llvm.lifetime.start.p0(i64 168, ptr %bs) #13
  %3 = load double, ptr %Sv, align 8, !tbaa !18
  call void @_ZNK8QuantLib36AnalyticHolderExtensibleOptionEngine12bsCalculatorEdNS_6Option4TypeE(ptr dead_on_unwind writable sret(%"class.QuantLib::BlackScholesCalculator") align 8 %bs, ptr noundef nonnull align 8 dereferenceable(376) %this1, double noundef %3, i32 noundef 1)
  call void @llvm.lifetime.start.p0(i64 8, ptr %ci) #13
  %call3 = invoke noundef double @_ZNK8QuantLib15BlackCalculator5valueEv(ptr noundef nonnull align 8 dereferenceable(152) %bs)
          to label %invoke.cont unwind label %lpad

invoke.cont:                                      ; preds = %if.else
  store double %call3, ptr %ci, align 8, !tbaa !18
  call void @llvm.lifetime.start.p0(i64 8, ptr %dc) #13
  %call6 = invoke noundef double @_ZNK8QuantLib22BlackScholesCalculator5deltaEv(ptr noundef nonnull align 8 dereferenceable(168) %bs)
          to label %invoke.cont5 unwind label %lpad4

invoke.cont5:                                     ; preds = %invoke.cont
  store double %call6, ptr %dc, align 8, !tbaa !18
  call void @llvm.lifetime.start.p0(i64 8, ptr %yi) #13
  %4 = load double, ptr %ci, align 8, !tbaa !18
  %5 = load double, ptr %A, align 8, !tbaa !18
  %sub = fsub double %4, %5
  store double %sub, ptr %yi, align 8, !tbaa !18
  call void @llvm.lifetime.start.p0(i64 8, ptr %di) #13
  %6 = load double, ptr %dc, align 8, !tbaa !18
  %sub7 = fsub double %6, 0.000000e+00
  store double %sub7, ptr %di, align 8, !tbaa !18
  call void @llvm.lifetime.start.p0(i64 8, ptr %epsilon) #13
  store double 1.000000e-03, ptr %epsilon, align 8, !tbaa !18
  br label %while.cond

while.cond:                                       ; preds = %invoke.cont16, %invoke.cont5
  %7 = load double, ptr %yi, align 8, !tbaa !18
  %8 = call double @llvm.fabs.f64(double %7)
  %9 = load double, ptr %epsilon, align 8, !tbaa !18
  %cmp8 = fcmp ogt double %8, %9
  br i1 %cmp8, label %while.body, label %while.end

while.body:                                       ; preds = %while.cond
  %10 = load double, ptr %Sv, align 8, !tbaa !18
  %11 = load double, ptr %yi, align 8, !tbaa !18
  %12 = load double, ptr %di, align 8, !tbaa !18
  %div = fdiv double %11, %12
  %sub9 = fsub double %10, %div
  store double %sub9, ptr %Sv, align 8, !tbaa !18
  call void @llvm.lifetime.start.p0(i64 168, ptr %ref.tmp) #13
  %13 = load double, ptr %Sv, align 8, !tbaa !18
  invoke void @_ZNK8QuantLib36AnalyticHolderExtensibleOptionEngine12bsCalculatorEdNS_6Option4TypeE(ptr dead_on_unwind writable sret(%"class.QuantLib::BlackScholesCalculator") align 8 %ref.tmp, ptr noundef nonnull align 8 dereferenceable(376) %this1, double noundef %13, i32 noundef 1)
          to label %invoke.cont11 unwind label %lpad10

invoke.cont11:                                    ; preds = %while.body
  %call12 = call noundef nonnull align 8 dereferenceable(168) ptr @_ZN8QuantLib22BlackScholesCalculatoraSERKS0_(ptr noundef nonnull align 8 dereferenceable(168) %bs, ptr noundef nonnull align 8 dereferenceable(168) %ref.tmp) #13
  call void @_ZN8QuantLib15BlackCalculatorD2Ev(ptr noundef nonnull align 8 dereferenceable(168) %ref.tmp) #13
  call void @llvm.lifetime.end.p0(i64 168, ptr %ref.tmp) #13
  %call15 = invoke noundef double @_ZNK8QuantLib15BlackCalculator5valueEv(ptr noundef nonnull align 8 dereferenceable(152) %bs)
          to label %invoke.cont14 unwind label %lpad13

invoke.cont14:                                    ; preds = %invoke.cont11
  store double %call15, ptr %ci, align 8, !tbaa !18
  %call17 = invoke noundef double @_ZNK8QuantLib22BlackScholesCalculator5deltaEv(ptr noundef nonnull align 8 dereferenceable(168) %bs)
          to label %invoke.cont16 unwind label %lpad13

invoke.cont16:                                    ; preds = %invoke.cont14
  store double %call17, ptr %dc, align 8, !tbaa !18
  %14 = load double, ptr %ci, align 8, !tbaa !18
  %15 = load double, ptr %A, align 8, !tbaa !18
  %sub18 = fsub double %14, %15
  store double %sub18, ptr %yi, align 8, !tbaa !18
  %16 = load double, ptr %dc, align 8, !tbaa !18
  %sub19 = fsub double %16, 0.000000e+00
  store double %sub19, ptr %di, align 8, !tbaa !18
  br label %while.cond, !llvm.loop !66

lpad:                                             ; preds = %if.else
  %17 = landingpad { ptr, i32 }
          cleanup
  %18 = extractvalue { ptr, i32 } %17, 0
  store ptr %18, ptr %exn.slot, align 8
  %19 = extractvalue { ptr, i32 } %17, 1
  store i32 %19, ptr %ehselector.slot, align 4
  br label %ehcleanup23

lpad4:                                            ; preds = %invoke.cont
  %20 = landingpad { ptr, i32 }
          cleanup
  %21 = extractvalue { ptr, i32 } %20, 0
  store ptr %21, ptr %exn.slot, align 8
  %22 = extractvalue { ptr, i32 } %20, 1
  store i32 %22, ptr %ehselector.slot, align 4
  br label %ehcleanup22

lpad10:                                           ; preds = %while.body
  %23 = landingpad { ptr, i32 }
          cleanup
  %24 = extractvalue { ptr, i32 } %23, 0
  store ptr %24, ptr %exn.slot, align 8
  %25 = extractvalue { ptr, i32 } %23, 1
  store i32 %25, ptr %ehselector.slot, align 4
  call void @llvm.lifetime.end.p0(i64 168, ptr %ref.tmp) #13
  br label %ehcleanup

lpad13:                                           ; preds = %invoke.cont14, %invoke.cont11
  %26 = landingpad { ptr, i32 }
          cleanup
  %27 = extractvalue { ptr, i32 } %26, 0
  store ptr %27, ptr %exn.slot, align 8
  %28 = extractvalue { ptr, i32 } %26, 1
  store i32 %28, ptr %ehselector.slot, align 4
  br label %ehcleanup

while.end:                                        ; preds = %while.cond
  %29 = load double, ptr %Sv, align 8, !tbaa !18
  store double %29, ptr %retval, align 8
  store i32 1, ptr %cleanup.dest.slot, align 4
  call void @llvm.lifetime.end.p0(i64 8, ptr %epsilon) #13
  call void @llvm.lifetime.end.p0(i64 8, ptr %di) #13
  call void @llvm.lifetime.end.p0(i64 8, ptr %yi) #13
  call void @llvm.lifetime.end.p0(i64 8, ptr %dc) #13
  call void @llvm.lifetime.end.p0(i64 8, ptr %ci) #13
  call void @_ZN8QuantLib15BlackCalculatorD2Ev(ptr noundef nonnull align 8 dereferenceable(168) %bs) #13
  call void @llvm.lifetime.end.p0(i64 168, ptr %bs) #13
  br label %cleanup

ehcleanup:                                        ; preds = %lpad13, %lpad10
  call void @llvm.lifetime.end.p0(i64 8, ptr %epsilon) #13
  call void @llvm.lifetime.end.p0(i64 8, ptr %di) #13
  call void @llvm.lifetime.end.p0(i64 8, ptr %yi) #13
  br label %ehcleanup22

ehcleanup22:                                      ; preds = %ehcleanup, %lpad4
  call void @llvm.lifetime.end.p0(i64 8, ptr %dc) #13
  br label %ehcleanup23

ehcleanup23:                                      ; preds = %ehcleanup22, %lpad
  call void @llvm.lifetime.end.p0(i64 8, ptr %ci) #13
  call void @_ZN8QuantLib15BlackCalculatorD2Ev(ptr noundef nonnull align 8 dereferenceable(168) %bs) #13
  call void @llvm.lifetime.end.p0(i64 168, ptr %bs) #13
  call void @llvm.lifetime.end.p0(i64 8, ptr %A) #13
  call void @llvm.lifetime.end.p0(i64 8, ptr %Sv) #13
  br label %eh.resume

cleanup:                                          ; preds = %while.end, %if.then
  call void @llvm.lifetime.end.p0(i64 8, ptr %A) #13
  call void @llvm.lifetime.end.p0(i64 8, ptr %Sv) #13
  %30 = load double, ptr %retval, align 8
  ret double %30

eh.resume:                                        ; preds = %ehcleanup23
  %exn = load ptr, ptr %exn.slot, align 8
  %sel = load i32, ptr %ehselector.slot, align 4
  %lpad.val = insertvalue { ptr, i32 } poison, ptr %exn, 0
  %lpad.val29 = insertvalue { ptr, i32 } %lpad.val, i32 %sel, 1
  resume { ptr, i32 } %lpad.val29
}