; Function Attrs: mustprogress uwtable
define noundef double @_ZNK8QuantLib36AnalyticHolderExtensibleOptionEngine6I1CallEv(ptr noundef nonnull align 8 dereferenceable(376) %this) local_unnamed_addr #8 align 2 personality ptr @__gxx_personality_v0 {
entry:
  %bs = alloca %"class.QuantLib::BlackScholesCalculator", align 8
  %ref.tmp = alloca %"class.QuantLib::BlackScholesCalculator", align 8
  %process_ = getelementptr inbounds nuw i8, ptr %this, i64 360
  %0 = load ptr, ptr %process_, align 8, !tbaa !39
  %cmp.not.i = icmp eq ptr %0, null
  br i1 %cmp.not.i, label %cond.false.i, label %_ZNK5boost10shared_ptrIN8QuantLib30GeneralizedBlackScholesProcessEEptEv.exit, !prof !46

cond.false.i:                                     ; preds = %entry
  tail call void @_ZN5boost16assertion_failedEPKcS1_S1_l(ptr noundef nonnull @.str.14, ptr noundef nonnull @__PRETTY_FUNCTION__._ZNK5boost10shared_ptrIN8QuantLib30GeneralizedBlackScholesProcessEEptEv, ptr noundef nonnull @.str.15, i64 noundef 784)
  %.pre.i = load ptr, ptr %process_, align 8, !tbaa !39
  br label %_ZNK5boost10shared_ptrIN8QuantLib30GeneralizedBlackScholesProcessEEptEv.exit

_ZNK5boost10shared_ptrIN8QuantLib30GeneralizedBlackScholesProcessEEptEv.exit: ; preds = %entry, %cond.false.i
  %1 = phi ptr [ %0, %entry ], [ %.pre.i, %cond.false.i ]
  %vtable = load ptr, ptr %1, align 8, !tbaa !35
  %vfn = getelementptr inbounds i8, ptr %vtable, i64 120
  %2 = load ptr, ptr %vfn, align 8
  %call2 = tail call noundef double %2(ptr noundef nonnull align 8 dereferenceable(250) %1)
  %premium = getelementptr inbounds nuw i8, ptr %this, i64 152
  %3 = load double, ptr %premium, align 8, !tbaa !74
  %cmp = fcmp oeq double %3, 0.000000e+00
  br i1 %cmp, label %cleanup, label %if.else

if.else:                                          ; preds = %_ZNK5boost10shared_ptrIN8QuantLib30GeneralizedBlackScholesProcessEEptEv.exit
  call void @llvm.lifetime.start.p0(i64 168, ptr nonnull %bs) #26
  call void @_ZNK8QuantLib36AnalyticHolderExtensibleOptionEngine12bsCalculatorEdNS_6Option4TypeE(ptr dead_on_unwind nonnull writable sret(%"class.QuantLib::BlackScholesCalculator") align 8 %bs, ptr noundef nonnull align 8 dereferenceable(376) %this, double noundef %call2, i32 noundef 1)
  %call3 = call noundef double @_ZNK8QuantLib15BlackCalculator5valueEv(ptr noundef nonnull align 8 dereferenceable(152) %bs)
  %spot_.i = getelementptr inbounds nuw i8, ptr %bs, i64 152
  %4 = load double, ptr %spot_.i, align 8, !tbaa !122
  %call.i12 = call noundef double @_ZNK8QuantLib15BlackCalculator5deltaEd(ptr noundef nonnull align 8 dereferenceable(152) %bs, double noundef %4)
  %yi.017 = fsub double %call3, %3
  %5 = call double @llvm.fabs.f64(double %yi.017)
  %cmp818 = fcmp ogt double %5, 1.000000e-03
  br i1 %cmp818, label %while.body.lr.ph, label %while.end

while.body.lr.ph:                                 ; preds = %if.else
  %strike_.i.i = getelementptr inbounds nuw i8, ptr %bs, i64 8
  %strike_2.i.i = getelementptr inbounds nuw i8, ptr %ref.tmp, i64 8
  %spot_2.i = getelementptr inbounds nuw i8, ptr %ref.tmp, i64 152
  br label %while.body

while.body:                                       ; preds = %while.body.lr.ph, %while.body
  %yi.021 = phi double [ %yi.017, %while.body.lr.ph ], [ %yi.0, %while.body ]
  %di.020 = phi double [ %call.i12, %while.body.lr.ph ], [ %call.i15, %while.body ]
  %Sv.019 = phi double [ %call2, %while.body.lr.ph ], [ %sub9, %while.body ]
  %div = fdiv double %yi.021, %di.020
  %sub9 = fsub double %Sv.019, %div
  call void @llvm.lifetime.start.p0(i64 168, ptr nonnull %ref.tmp) #26
  call void @_ZNK8QuantLib36AnalyticHolderExtensibleOptionEngine12bsCalculatorEdNS_6Option4TypeE(ptr dead_on_unwind nonnull writable sret(%"class.QuantLib::BlackScholesCalculator") align 8 %ref.tmp, ptr noundef nonnull align 8 dereferenceable(376) %this, double noundef %sub9, i32 noundef 1)
  call void @llvm.memcpy.p0.p0.i64(ptr noundef nonnull align 8 dereferenceable(144) %strike_.i.i, ptr noundef nonnull align 8 dereferenceable(144) %strike_2.i.i, i64 144, i1 false)
  call void @llvm.memcpy.p0.p0.i64(ptr noundef nonnull align 8 dereferenceable(16) %spot_.i, ptr noundef nonnull align 8 dereferenceable(16) %spot_2.i, i64 16, i1 false)
  call void @llvm.lifetime.end.p0(i64 168, ptr nonnull %ref.tmp) #26
  %call15 = call noundef double @_ZNK8QuantLib15BlackCalculator5valueEv(ptr noundef nonnull align 8 dereferenceable(152) %bs)
  %6 = load double, ptr %spot_.i, align 8, !tbaa !122
  %call.i15 = call noundef double @_ZNK8QuantLib15BlackCalculator5deltaEd(ptr noundef nonnull align 8 dereferenceable(152) %bs, double noundef %6)
  %yi.0 = fsub double %call15, %3
  %7 = call double @llvm.fabs.f64(double %yi.0)
  %cmp8 = fcmp ogt double %7, 1.000000e-03
  br i1 %cmp8, label %while.body, label %while.end

while.end:                                        ; preds = %while.body, %if.else
  %Sv.0.lcssa = phi double [ %call2, %if.else ], [ %sub9, %while.body ]
  call void @llvm.lifetime.end.p0(i64 168, ptr nonnull %bs) #26
  br label %cleanup

cleanup:                                          ; preds = %_ZNK5boost10shared_ptrIN8QuantLib30GeneralizedBlackScholesProcessEEptEv.exit, %while.end
  %retval.0 = phi double [ %Sv.0.lcssa, %while.end ], [ 0.000000e+00, %_ZNK5boost10shared_ptrIN8QuantLib30GeneralizedBlackScholesProcessEEptEv.exit ]
  ret double %retval.0
}